; ModuleID = '40/1909.c'
source_filename = "40/1909.c"
target datalayout = "e-m:e-p270:32:32-p271:32:32-p272:64:64-i64:64-f80:128-n8:16:32:64-S128"
target triple = "x86_64-pc-linux-gnu"

@pi = dso_local constant double 0x400921FB4D12D84A, align 8
@.str = private unnamed_addr constant [16 x i8] c"%lf%lf%lf%lf%lf\00", align 1
@.str.1 = private unnamed_addr constant [6 x i8] c"%.4lf\00", align 1
@.str.2 = private unnamed_addr constant [14 x i8] c"Invalid input\00", align 1

; Function Attrs: noinline nounwind uwtable
define dso_local double @Area(double %0, double %1, double %2, double %3, double %4) #0 {
  %6 = alloca double, align 8
  %7 = alloca double, align 8
  %8 = alloca double, align 8
  %9 = alloca double, align 8
  %10 = alloca double, align 8
  %11 = alloca double, align 8
  %12 = alloca double, align 8
  %13 = alloca double, align 8
  store double %0, double* %7, align 8
  store double %1, double* %8, align 8
  store double %2, double* %9, align 8
  store double %3, double* %10, align 8
  store double %4, double* %11, align 8
  %14 = load double, double* %7, align 8
  %15 = load double, double* %8, align 8
  %16 = fadd double %14, %15
  %17 = load double, double* %9, align 8
  %18 = fadd double %16, %17
  %19 = load double, double* %10, align 8
  %20 = fadd double %18, %19
  %21 = fdiv double %20, 2.000000e+00
  store double %21, double* %12, align 8
  %22 = load double, double* %11, align 8
  %23 = fdiv double %22, 2.000000e+00
  %24 = fdiv double %23, 3.600000e+02
  %25 = fmul double %24, 2.000000e+00
  %26 = fmul double %25, 0x400921FB4D12D84A
  store double %26, double* %11, align 8
  %27 = load double, double* %12, align 8
  %28 = load double, double* %7, align 8
  %29 = fsub double %27, %28
  %30 = load double, double* %12, align 8
  %31 = load double, double* %8, align 8
  %32 = fsub double %30, %31
  %33 = fmul double %29, %32
  %34 = load double, double* %12, align 8
  %35 = load double, double* %9, align 8
  %36 = fsub double %34, %35
  %37 = fmul double %33, %36
  %38 = load double, double* %12, align 8
  %39 = load double, double* %10, align 8
  %40 = fsub double %38, %39
  %41 = fmul double %37, %40
  %42 = load double, double* %7, align 8
  %43 = load double, double* %8, align 8
  %44 = fmul double %42, %43
  %45 = load double, double* %9, align 8
  %46 = fmul double %44, %45
  %47 = load double, double* %10, align 8
  %48 = fmul double %46, %47
  %49 = load double, double* %11, align 8
  %50 = call double @cos(double %49) #3
  %51 = fmul double %48, %50
  %52 = load double, double* %11, align 8
  %53 = call double @cos(double %52) #3
  %54 = fmul double %51, %53
  %55 = fsub double %41, %54
  store double %55, double* %13, align 8
  %56 = load double, double* %13, align 8
  %57 = fcmp olt double %56, 0.000000e+00
  br i1 %57, label %58, label %59

58:                                               ; preds = %5
  store double -1.000000e+00, double* %6, align 8
  br label %62

59:                                               ; preds = %5
  %60 = load double, double* %13, align 8
  %61 = call double @sqrt(double %60) #3
  store double %61, double* %6, align 8
  br label %62

62:                                               ; preds = %59, %58
  %63 = load double, double* %6, align 8
  ret double %63
}

; Function Attrs: nounwind
declare dso_local double @cos(double) #1

; Function Attrs: nounwind
declare dso_local double @sqrt(double) #1

; Function Attrs: noinline nounwind uwtable
define dso_local i32 @main() #0 {
  %1 = alloca i32, align 4
  %2 = alloca double, align 8
  %3 = alloca double, align 8
  %4 = alloca double, align 8
  %5 = alloca double, align 8
  %6 = alloca double, align 8
  %7 = alloca double, align 8
  store i32 0, i32* %1, align 4
  %8 = call i32 (i8*, ...) @__isoc99_scanf(i8* getelementptr inbounds ([16 x i8], [16 x i8]* @.str, i64 0, i64 0), double* %2, double* %3, double* %4, double* %5, double* %6)
  %9 = load double, double* %2, align 8
  %10 = load double, double* %3, align 8
  %11 = load double, double* %4, align 8
  %12 = load double, double* %5, align 8
  %13 = load double, double* %6, align 8
  %14 = call double @Area(double %9, double %10, double %11, double %12, double %13)
  store double %14, double* %7, align 8
  %15 = load double, double* %7, align 8
  %16 = fcmp oge double %15, 0.000000e+00
  br i1 %16, label %17, label %20

17:                                               ; preds = %0
  %18 = load double, double* %7, align 8
  %19 = call i32 (i8*, ...) @printf(i8* getelementptr inbounds ([6 x i8], [6 x i8]* @.str.1, i64 0, i64 0), double %18)
  br label %22

20:                                               ; preds = %0
  %21 = call i32 (i8*, ...) @printf(i8* getelementptr inbounds ([14 x i8], [14 x i8]* @.str.2, i64 0, i64 0))
  br label %22

22:                                               ; preds = %20, %17
  ret i32 0
}

declare dso_local i32 @__isoc99_scanf(i8*, ...) #2

declare dso_local i32 @printf(i8*, ...) #2


!llvm.module.flags = !{!0}
!llvm.ident = !{!1}

!0 = !{i32 1, !"wchar_size", i32 4}
!1 = !{!"clang version 10.0.0-4ubuntu1 "}
